target datalayout = "e-m:e-p270:32:32-p271:32:32-p272:64:64-i64:64-i128:128-f80:128-n8:16:32:64-S128"
target triple = "x86_64-pc-linux-gnu"

%struct.archive_rb_tree_ops = type { ptr, ptr }
%struct.archive_write = type { %struct.archive, i32, i64, i64, ptr, i64, ptr, ptr, ptr, ptr, ptr, i32, i32, ptr, ptr, ptr, ptr, ptr, ptr, ptr, ptr, ptr, ptr, ptr, ptr, ptr, ptr }
%struct.archive = type { i32, i32, ptr, i32, ptr, i32, i32, ptr, %struct.archive_string, ptr, i32, i32, ptr, ptr, i64, i64, i64, i8, i64 }
%struct.archive_string = type { ptr, i64, i64 }
%struct.iso9660 = type { i64, i32, ptr, ptr, %struct.archive_string, i64, i32, %struct.archive_string, %struct.archive_string, ptr, ptr, %struct.anon, %struct.anon.0, %struct.archive_rb_tree, %struct.vdd, %struct.vdd, i32, i32, i32, %struct.archive_string, %struct.archive_string, %struct.archive_string, %struct.archive_string, %struct.archive_string, %struct.archive_string, %struct.archive_string, i32, %struct.anon.1, ptr, i32, [65536 x i8], i64, i32, i64, i64, i64, %struct.anon.2, %struct.iso_option }
%struct.anon = type { ptr, ptr }
%struct.anon.0 = type { ptr, ptr }
%struct.archive_rb_tree = type { ptr, ptr }
%struct.vdd = type { ptr, i32, ptr, i32, i32, i32, i32, i32, i32 }
%struct.anon.1 = type { i8, [64 x i8], i32, ptr, i64, i32, i32, i64, i64, %struct.z_stream_s, i32, i64, i32 }
%struct.z_stream_s = type { ptr, i32, i64, ptr, i32, i64, ptr, ptr, ptr, ptr, ptr, i32, i64, i64 }
%struct.anon.2 = type { %struct.archive_string, ptr, %struct.archive_string, ptr, i8, %struct.archive_string, i8, i8, i16, i16 }
%struct.iso_option = type { i32 }
%struct.isoent = type { %struct.archive_rb_node, ptr, ptr, %struct.anon.3, %struct.archive_rb_tree, %struct.anon.4, ptr, ptr, ptr, ptr, i32, %struct.anon.5, i32, i32, ptr, i32, i32, i32, i32, ptr, ptr, %struct.anon.6, i8 }
%struct.archive_rb_node = type { [2 x ptr], i64 }
%struct.anon.3 = type { ptr, ptr, i32 }
%struct.anon.4 = type { ptr, ptr, i32 }
%struct.anon.5 = type { i32, i32, i32, i32 }
%struct.anon.6 = type { ptr, ptr, ptr }
%struct.isofile = type { ptr, ptr, ptr, ptr, ptr, %struct.archive_string, %struct.archive_string, %struct.archive_string, %struct.archive_string, i32, %struct.content, ptr, i32, i32, %struct.anon.7 }
%struct.content = type { i64, i64, i32, i32, ptr }
%struct.anon.7 = type { i8, i8, i32 }

@isoent_new.rb_ops = internal constant %struct.archive_rb_tree_ops { ptr @isoent_cmp_node, ptr @isoent_cmp_key }, align 8

; Function Attrs: nounwind uwtable
define internal ptr @isoent_new(ptr noundef %0) #0 {
  %2 = alloca ptr, align 8
  %3 = alloca ptr, align 8
  %4 = alloca ptr, align 8
  %5 = alloca i32, align 4
  store ptr %0, ptr %3, align 8, !tbaa !134
  call void @llvm.lifetime.start.p0(i64 8, ptr %4) #13
  %6 = call noalias ptr @calloc(i64 noundef 1, i64 noundef 240) #14
  store ptr %6, ptr %4, align 8, !tbaa !141
  %7 = load ptr, ptr %4, align 8, !tbaa !141
  %8 = icmp eq ptr %7, null
  br i1 %8, label %9, label %10

9:                                                ; preds = %1
  store ptr null, ptr %2, align 8
  store i32 1, ptr %5, align 4
  br label %59

10:                                               ; preds = %1
  %11 = load ptr, ptr %3, align 8, !tbaa !134
  %12 = load ptr, ptr %4, align 8, !tbaa !141
  %13 = getelementptr inbounds nuw %struct.isoent, ptr %12, i32 0, i32 1
  store ptr %11, ptr %13, align 8, !tbaa !149
  %14 = load ptr, ptr %4, align 8, !tbaa !141
  %15 = getelementptr inbounds nuw %struct.isoent, ptr %14, i32 0, i32 3
  %16 = getelementptr inbounds nuw %struct.anon.3, ptr %15, i32 0, i32 0
  store ptr null, ptr %16, align 8, !tbaa !204
  %17 = load ptr, ptr %4, align 8, !tbaa !141
  %18 = getelementptr inbounds nuw %struct.isoent, ptr %17, i32 0, i32 3
  %19 = getelementptr inbounds nuw %struct.anon.3, ptr %18, i32 0, i32 0
  %20 = load ptr, ptr %4, align 8, !tbaa !141
  %21 = getelementptr inbounds nuw %struct.isoent, ptr %20, i32 0, i32 3
  %22 = getelementptr inbounds nuw %struct.anon.3, ptr %21, i32 0, i32 1
  store ptr %19, ptr %22, align 8, !tbaa !205
  %23 = load ptr, ptr %4, align 8, !tbaa !141
  %24 = getelementptr inbounds nuw %struct.isoent, ptr %23, i32 0, i32 4
  call void @__archive_rb_tree_init(ptr noundef %24, ptr noundef @isoent_new.rb_ops)
  %25 = load ptr, ptr %4, align 8, !tbaa !141
  %26 = getelementptr inbounds nuw %struct.isoent, ptr %25, i32 0, i32 5
  %27 = getelementptr inbounds nuw %struct.anon.4, ptr %26, i32 0, i32 0
  store ptr null, ptr %27, align 8, !tbaa !206
  %28 = load ptr, ptr %4, align 8, !tbaa !141
  %29 = getelementptr inbounds nuw %struct.isoent, ptr %28, i32 0, i32 5
  %30 = getelementptr inbounds nuw %struct.anon.4, ptr %29, i32 0, i32 0
  %31 = load ptr, ptr %4, align 8, !tbaa !141
  %32 = getelementptr inbounds nuw %struct.isoent, ptr %31, i32 0, i32 5
  %33 = getelementptr inbounds nuw %struct.anon.4, ptr %32, i32 0, i32 1
  store ptr %30, ptr %33, align 8, !tbaa !207
  %34 = load ptr, ptr %4, align 8, !tbaa !141
  %35 = getelementptr inbounds nuw %struct.isoent, ptr %34, i32 0, i32 21
  %36 = getelementptr inbounds nuw %struct.anon.6, ptr %35, i32 0, i32 0
  store ptr null, ptr %36, align 8, !tbaa !208
  %37 = load ptr, ptr %4, align 8, !tbaa !141
  %38 = getelementptr inbounds nuw %struct.isoent, ptr %37, i32 0, i32 21
  %39 = getelementptr inbounds nuw %struct.anon.6, ptr %38, i32 0, i32 0
  %40 = load ptr, ptr %4, align 8, !tbaa !141
  %41 = getelementptr inbounds nuw %struct.isoent, ptr %40, i32 0, i32 21
  %42 = getelementptr inbounds nuw %struct.anon.6, ptr %41, i32 0, i32 1
  store ptr %39, ptr %42, align 8, !tbaa !209
  %43 = load ptr, ptr %4, align 8, !tbaa !141
  %44 = getelementptr inbounds nuw %struct.isoent, ptr %43, i32 0, i32 21
  %45 = getelementptr inbounds nuw %struct.anon.6, ptr %44, i32 0, i32 2
  store ptr null, ptr %45, align 8, !tbaa !210
  %46 = load ptr, ptr %3, align 8, !tbaa !134
  %47 = getelementptr inbounds nuw %struct.isofile, ptr %46, i32 0, i32 4
  %48 = load ptr, ptr %47, align 8, !tbaa !135
  %49 = call i32 @archive_entry_filetype(ptr noundef %48)
  %50 = icmp eq i32 %49, 16384
  br i1 %50, label %51, label %57

51:                                               ; preds = %10
  %52 = load ptr, ptr %4, align 8, !tbaa !141
  %53 = getelementptr inbounds nuw %struct.isoent, ptr %52, i32 0, i32 22
  %54 = load i8, ptr %53, align 8
  %55 = and i8 %54, -3
  %56 = or i8 %55, 2
  store i8 %56, ptr %53, align 8
  br label %57

57:                                               ; preds = %51, %10
  %58 = load ptr, ptr %4, align 8, !tbaa !141
  store ptr %58, ptr %2, align 8
  store i32 1, ptr %5, align 4
  br label %59

59:                                               ; preds = %57, %9
  call void @llvm.lifetime.end.p0(i64 8, ptr %4) #13
  %60 = load ptr, ptr %2, align 8
  ret ptr %60
}

; Function Attrs: nounwind uwtable
define internal void @isofile_add_entry(ptr noundef %0, ptr noundef %1) #0 {
  %3 = alloca ptr, align 8
  %4 = alloca ptr, align 8
  store ptr %0, ptr %3, align 8, !tbaa !22
  store ptr %1, ptr %4, align 8, !tbaa !134
  %5 = load ptr, ptr %4, align 8, !tbaa !134
  %6 = getelementptr inbounds nuw %struct.isofile, ptr %5, i32 0, i32 0
  store ptr null, ptr %6, align 8, !tbaa !203
  %7 = load ptr, ptr %4, align 8, !tbaa !134
  %8 = load ptr, ptr %3, align 8, !tbaa !22
  %9 = getelementptr inbounds nuw %struct.iso9660, ptr %8, i32 0, i32 11
  %10 = getelementptr inbounds nuw %struct.anon, ptr %9, i32 0, i32 1
  %11 = load ptr, ptr %10, align 8, !tbaa !130
  store ptr %7, ptr %11, align 8, !tbaa !134
  %12 = load ptr, ptr %4, align 8, !tbaa !134
  %13 = getelementptr inbounds nuw %struct.isofile, ptr %12, i32 0, i32 0
  %14 = load ptr, ptr %3, align 8, !tbaa !22
  %15 = getelementptr inbounds nuw %struct.iso9660, ptr %14, i32 0, i32 11
  %16 = getelementptr inbounds nuw %struct.anon, ptr %15, i32 0, i32 1
  store ptr %13, ptr %16, align 8, !tbaa !130
  ret void
}

; Function Attrs: nounwind uwtable
define internal void @isofile_free(ptr noundef %0) #0 {
  %2 = alloca ptr, align 8
  %3 = alloca ptr, align 8
  %4 = alloca ptr, align 8
  store ptr %0, ptr %2, align 8, !tbaa !134
  call void @llvm.lifetime.start.p0(i64 8, ptr %3) #13
  call void @llvm.lifetime.start.p0(i64 8, ptr %4) #13
  %5 = load ptr, ptr %2, align 8, !tbaa !134
  %6 = getelementptr inbounds nuw %struct.isofile, ptr %5, i32 0, i32 10
  %7 = getelementptr inbounds nuw %struct.content, ptr %6, i32 0, i32 4
  %8 = load ptr, ptr %7, align 8, !tbaa !199
  store ptr %8, ptr %3, align 8, !tbaa !200
  br label %9

9:                                                ; preds = %12, %1
  %10 = load ptr, ptr %3, align 8, !tbaa !200
  %11 = icmp ne ptr %10, null
  br i1 %11, label %12, label %18

12:                                               ; preds = %9
  %13 = load ptr, ptr %3, align 8, !tbaa !200
  store ptr %13, ptr %4, align 8, !tbaa !200
  %14 = load ptr, ptr %3, align 8, !tbaa !200
  %15 = getelementptr inbounds nuw %struct.content, ptr %14, i32 0, i32 4
  %16 = load ptr, ptr %15, align 8, !tbaa !201
  store ptr %16, ptr %3, align 8, !tbaa !200
  %17 = load ptr, ptr %4, align 8, !tbaa !200
  call void @free(ptr noundef %17) #13
  br label %9, !llvm.loop !202

18:                                               ; preds = %9
  %19 = load ptr, ptr %2, align 8, !tbaa !134
  %20 = getelementptr inbounds nuw %struct.isofile, ptr %19, i32 0, i32 4
  %21 = load ptr, ptr %20, align 8, !tbaa !135
  call void @archive_entry_free(ptr noundef %21)
  %22 = load ptr, ptr %2, align 8, !tbaa !134
  %23 = getelementptr inbounds nuw %struct.isofile, ptr %22, i32 0, i32 5
  call void @archive_string_free(ptr noundef %23)
  %24 = load ptr, ptr %2, align 8, !tbaa !134
  %25 = getelementptr inbounds nuw %struct.isofile, ptr %24, i32 0, i32 6
  call void @archive_string_free(ptr noundef %25)
  %26 = load ptr, ptr %2, align 8, !tbaa !134
  %27 = getelementptr inbounds nuw %struct.isofile, ptr %26, i32 0, i32 7
  call void @archive_string_free(ptr noundef %27)
  %28 = load ptr, ptr %2, align 8, !tbaa !134
  %29 = getelementptr inbounds nuw %struct.isofile, ptr %28, i32 0, i32 8
  call void @archive_string_free(ptr noundef %29)
  %30 = load ptr, ptr %2, align 8, !tbaa !134
  call void @free(ptr noundef %30) #13
  call void @llvm.lifetime.end.p0(i64 8, ptr %4) #13
  call void @llvm.lifetime.end.p0(i64 8, ptr %3) #13
  ret void
}

; Function Attrs: nounwind uwtable
define internal ptr @isofile_new(ptr noundef %0, ptr noundef %1) #0 {
  %3 = alloca ptr, align 8
  %4 = alloca ptr, align 8
  %5 = alloca ptr, align 8
  %6 = alloca ptr, align 8
  %7 = alloca i32, align 4
  store ptr %0, ptr %4, align 8, !tbaa !9
  store ptr %1, ptr %5, align 8, !tbaa !144
  call void @llvm.lifetime.start.p0(i64 8, ptr %6) #13
  %8 = call noalias ptr @calloc(i64 noundef 1, i64 noundef 200) #14
  store ptr %8, ptr %6, align 8, !tbaa !134
  %9 = load ptr, ptr %6, align 8, !tbaa !134
  %10 = icmp eq ptr %9, null
  br i1 %10, label %11, label %12

11:                                               ; preds = %2
  store ptr null, ptr %3, align 8
  store i32 1, ptr %7, align 4
  br label %87

12:                                               ; preds = %2
  %13 = load ptr, ptr %5, align 8, !tbaa !144
  %14 = icmp ne ptr %13, null
  br i1 %14, label %15, label %20

15:                                               ; preds = %12
  %16 = load ptr, ptr %5, align 8, !tbaa !144
  %17 = call ptr @archive_entry_clone(ptr noundef %16)
  %18 = load ptr, ptr %6, align 8, !tbaa !134
  %19 = getelementptr inbounds nuw %struct.isofile, ptr %18, i32 0, i32 4
  store ptr %17, ptr %19, align 8, !tbaa !135
  br label %26

20:                                               ; preds = %12
  %21 = load ptr, ptr %4, align 8, !tbaa !9
  %22 = getelementptr inbounds nuw %struct.archive_write, ptr %21, i32 0, i32 0
  %23 = call ptr @archive_entry_new2(ptr noundef %22)
  %24 = load ptr, ptr %6, align 8, !tbaa !134
  %25 = getelementptr inbounds nuw %struct.isofile, ptr %24, i32 0, i32 4
  store ptr %23, ptr %25, align 8, !tbaa !135
  br label %26

26:                                               ; preds = %20, %15
  %27 = load ptr, ptr %6, align 8, !tbaa !134
  %28 = getelementptr inbounds nuw %struct.isofile, ptr %27, i32 0, i32 4
  %29 = load ptr, ptr %28, align 8, !tbaa !135
  %30 = icmp eq ptr %29, null
  br i1 %30, label %31, label %33

31:                                               ; preds = %26
  %32 = load ptr, ptr %6, align 8, !tbaa !134
  call void @free(ptr noundef %32) #13
  store ptr null, ptr %3, align 8
  store i32 1, ptr %7, align 4
  br label %87

33:                                               ; preds = %26
  br label %34

34:                                               ; preds = %33
  %35 = load ptr, ptr %6, align 8, !tbaa !134
  %36 = getelementptr inbounds nuw %struct.isofile, ptr %35, i32 0, i32 5
  %37 = getelementptr inbounds nuw %struct.archive_string, ptr %36, i32 0, i32 0
  store ptr null, ptr %37, align 8, !tbaa !182
  %38 = load ptr, ptr %6, align 8, !tbaa !134
  %39 = getelementptr inbounds nuw %struct.isofile, ptr %38, i32 0, i32 5
  %40 = getelementptr inbounds nuw %struct.archive_string, ptr %39, i32 0, i32 1
  store i64 0, ptr %40, align 8, !tbaa !147
  %41 = load ptr, ptr %6, align 8, !tbaa !134
  %42 = getelementptr inbounds nuw %struct.isofile, ptr %41, i32 0, i32 5
  %43 = getelementptr inbounds nuw %struct.archive_string, ptr %42, i32 0, i32 2
  store i64 0, ptr %43, align 8, !tbaa !183
  br label %44

44:                                               ; preds = %34
  br label %45

45:                                               ; preds = %44
  br label %46

46:                                               ; preds = %45
  %47 = load ptr, ptr %6, align 8, !tbaa !134
  %48 = getelementptr inbounds nuw %struct.isofile, ptr %47, i32 0, i32 6
  %49 = getelementptr inbounds nuw %struct.archive_string, ptr %48, i32 0, i32 0
  store ptr null, ptr %49, align 8, !tbaa !184
  %50 = load ptr, ptr %6, align 8, !tbaa !134
  %51 = getelementptr inbounds nuw %struct.isofile, ptr %50, i32 0, i32 6
  %52 = getelementptr inbounds nuw %struct.archive_string, ptr %51, i32 0, i32 1
  store i64 0, ptr %52, align 8, !tbaa !148
  %53 = load ptr, ptr %6, align 8, !tbaa !134
  %54 = getelementptr inbounds nuw %struct.isofile, ptr %53, i32 0, i32 6
  %55 = getelementptr inbounds nuw %struct.archive_string, ptr %54, i32 0, i32 2
  store i64 0, ptr %55, align 8, !tbaa !185
  br label %56

56:                                               ; preds = %46
  br label %57

57:                                               ; preds = %56
  br label %58

58:                                               ; preds = %57
  %59 = load ptr, ptr %6, align 8, !tbaa !134
  %60 = getelementptr inbounds nuw %struct.isofile, ptr %59, i32 0, i32 7
  %61 = getelementptr inbounds nuw %struct.archive_string, ptr %60, i32 0, i32 0
  store ptr null, ptr %61, align 8, !tbaa !186
  %62 = load ptr, ptr %6, align 8, !tbaa !134
  %63 = getelementptr inbounds nuw %struct.isofile, ptr %62, i32 0, i32 7
  %64 = getelementptr inbounds nuw %struct.archive_string, ptr %63, i32 0, i32 1
  store i64 0, ptr %64, align 8, !tbaa !187
  %65 = load ptr, ptr %6, align 8, !tbaa !134
  %66 = getelementptr inbounds nuw %struct.isofile, ptr %65, i32 0, i32 7
  %67 = getelementptr inbounds nuw %struct.archive_string, ptr %66, i32 0, i32 2
  store i64 0, ptr %67, align 8, !tbaa !188
  br label %68

68:                                               ; preds = %58
  br label %69

69:                                               ; preds = %68
  br label %70

70:                                               ; preds = %69
  %71 = load ptr, ptr %6, align 8, !tbaa !134
  %72 = getelementptr inbounds nuw %struct.isofile, ptr %71, i32 0, i32 8
  %73 = getelementptr inbounds nuw %struct.archive_string, ptr %72, i32 0, i32 0
  store ptr null, ptr %73, align 8, !tbaa !189
  %74 = load ptr, ptr %6, align 8, !tbaa !134
  %75 = getelementptr inbounds nuw %struct.isofile, ptr %74, i32 0, i32 8
  %76 = getelementptr inbounds nuw %struct.archive_string, ptr %75, i32 0, i32 1
  store i64 0, ptr %76, align 8, !tbaa !190
  %77 = load ptr, ptr %6, align 8, !tbaa !134
  %78 = getelementptr inbounds nuw %struct.isofile, ptr %77, i32 0, i32 8
  %79 = getelementptr inbounds nuw %struct.archive_string, ptr %78, i32 0, i32 2
  store i64 0, ptr %79, align 8, !tbaa !191
  br label %80

80:                                               ; preds = %70
  br label %81

81:                                               ; preds = %80
  %82 = load ptr, ptr %6, align 8, !tbaa !134
  %83 = getelementptr inbounds nuw %struct.isofile, ptr %82, i32 0, i32 10
  %84 = load ptr, ptr %6, align 8, !tbaa !134
  %85 = getelementptr inbounds nuw %struct.isofile, ptr %84, i32 0, i32 11
  store ptr %83, ptr %85, align 8, !tbaa !152
  %86 = load ptr, ptr %6, align 8, !tbaa !134
  store ptr %86, ptr %3, align 8
  store i32 1, ptr %7, align 4
  br label %87

87:                                               ; preds = %81, %31, %11
  call void @llvm.lifetime.end.p0(i64 8, ptr %6) #13
  %88 = load ptr, ptr %3, align 8
  ret ptr %88
}

; Function Attrs: nounwind uwtable
define internal ptr @isoent_create_virtual_dir(ptr noundef %0, ptr noundef %1, ptr noundef %2) #0 {
  %4 = alloca ptr, align 8
  %5 = alloca ptr, align 8
  %6 = alloca ptr, align 8
  %7 = alloca ptr, align 8
  %8 = alloca ptr, align 8
  %9 = alloca ptr, align 8
  %10 = alloca i32, align 4
  store ptr %0, ptr %5, align 8, !tbaa !9
  store ptr %1, ptr %6, align 8, !tbaa !22
  store ptr %2, ptr %7, align 8, !tbaa !133
  call void @llvm.lifetime.start.p0(i64 8, ptr %8) #13
  call void @llvm.lifetime.start.p0(i64 8, ptr %9) #13
  %11 = load ptr, ptr %5, align 8, !tbaa !9
  %12 = call ptr @isofile_new(ptr noundef %11, ptr noundef null)
  store ptr %12, ptr %8, align 8, !tbaa !134
  %13 = load ptr, ptr %8, align 8, !tbaa !134
  %14 = icmp eq ptr %13, null
  br i1 %14, label %15, label %16

15:                                               ; preds = %3
  store ptr null, ptr %4, align 8
  store i32 1, ptr %10, align 4
  br label %72

16:                                               ; preds = %3
  %17 = load ptr, ptr %8, align 8, !tbaa !134
  %18 = getelementptr inbounds nuw %struct.isofile, ptr %17, i32 0, i32 4
  %19 = load ptr, ptr %18, align 8, !tbaa !135
  %20 = load ptr, ptr %7, align 8, !tbaa !133
  call void @archive_entry_set_pathname(ptr noundef %19, ptr noundef %20)
  %21 = load ptr, ptr %8, align 8, !tbaa !134
  %22 = getelementptr inbounds nuw %struct.isofile, ptr %21, i32 0, i32 4
  %23 = load ptr, ptr %22, align 8, !tbaa !135
  call void @archive_entry_unset_mtime(ptr noundef %23)
  %24 = load ptr, ptr %8, align 8, !tbaa !134
  %25 = getelementptr inbounds nuw %struct.isofile, ptr %24, i32 0, i32 4
  %26 = load ptr, ptr %25, align 8, !tbaa !135
  call void @archive_entry_unset_atime(ptr noundef %26)
  %27 = load ptr, ptr %8, align 8, !tbaa !134
  %28 = getelementptr inbounds nuw %struct.isofile, ptr %27, i32 0, i32 4
  %29 = load ptr, ptr %28, align 8, !tbaa !135
  call void @archive_entry_unset_ctime(ptr noundef %29)
  %30 = load ptr, ptr %8, align 8, !tbaa !134
  %31 = getelementptr inbounds nuw %struct.isofile, ptr %30, i32 0, i32 4
  %32 = load ptr, ptr %31, align 8, !tbaa !135
  %33 = call i32 @getuid() #13
  %34 = zext i32 %33 to i64
  call void @archive_entry_set_uid(ptr noundef %32, i64 noundef %34)
  %35 = load ptr, ptr %8, align 8, !tbaa !134
  %36 = getelementptr inbounds nuw %struct.isofile, ptr %35, i32 0, i32 4
  %37 = load ptr, ptr %36, align 8, !tbaa !135
  %38 = call i32 @getgid() #13
  %39 = zext i32 %38 to i64
  call void @archive_entry_set_gid(ptr noundef %37, i64 noundef %39)
  %40 = load ptr, ptr %8, align 8, !tbaa !134
  %41 = getelementptr inbounds nuw %struct.isofile, ptr %40, i32 0, i32 4
  %42 = load ptr, ptr %41, align 8, !tbaa !135
  call void @archive_entry_set_mode(ptr noundef %42, i32 noundef 16749)
  %43 = load ptr, ptr %8, align 8, !tbaa !134
  %44 = getelementptr inbounds nuw %struct.isofile, ptr %43, i32 0, i32 4
  %45 = load ptr, ptr %44, align 8, !tbaa !135
  call void @archive_entry_set_nlink(ptr noundef %45, i32 noundef 2)
  %46 = load ptr, ptr %5, align 8, !tbaa !9
  %47 = load ptr, ptr %8, align 8, !tbaa !134
  %48 = call i32 @isofile_gen_utility_names(ptr noundef %46, ptr noundef %47)
  %49 = icmp slt i32 %48, -20
  br i1 %49, label %50, label %52

50:                                               ; preds = %16
  %51 = load ptr, ptr %8, align 8, !tbaa !134
  call void @isofile_free(ptr noundef %51)
  store ptr null, ptr %4, align 8
  store i32 1, ptr %10, align 4
  br label %72

52:                                               ; preds = %16
  %53 = load ptr, ptr %6, align 8, !tbaa !22
  %54 = load ptr, ptr %8, align 8, !tbaa !134
  call void @isofile_add_entry(ptr noundef %53, ptr noundef %54)
  %55 = load ptr, ptr %8, align 8, !tbaa !134
  %56 = call ptr @isoent_new(ptr noundef %55)
  store ptr %56, ptr %9, align 8, !tbaa !141
  %57 = load ptr, ptr %9, align 8, !tbaa !141
  %58 = icmp eq ptr %57, null
  br i1 %58, label %59, label %60

59:                                               ; preds = %52
  store ptr null, ptr %4, align 8
  store i32 1, ptr %10, align 4
  br label %72

60:                                               ; preds = %52
  %61 = load ptr, ptr %9, align 8, !tbaa !141
  %62 = getelementptr inbounds nuw %struct.isoent, ptr %61, i32 0, i32 22
  %63 = load i8, ptr %62, align 8
  %64 = and i8 %63, -3
  %65 = or i8 %64, 2
  store i8 %65, ptr %62, align 8
  %66 = load ptr, ptr %9, align 8, !tbaa !141
  %67 = getelementptr inbounds nuw %struct.isoent, ptr %66, i32 0, i32 22
  %68 = load i8, ptr %67, align 8
  %69 = and i8 %68, -2
  %70 = or i8 %69, 1
  store i8 %70, ptr %67, align 8
  %71 = load ptr, ptr %9, align 8, !tbaa !141
  store ptr %71, ptr %4, align 8
  store i32 1, ptr %10, align 4
  br label %72

72:                                               ; preds = %60, %59, %50, %15
  call void @llvm.lifetime.end.p0(i64 8, ptr %9) #13
  call void @llvm.lifetime.end.p0(i64 8, ptr %8) #13
  %73 = load ptr, ptr %4, align 8
  ret ptr %73
}