; Function Attrs: nounwind uwtable
define internal fastcc noundef ptr @isoent_create_virtual_dir(ptr noundef %0, ptr noundef captures(none) %1, ptr noundef %2) unnamed_addr #0 {
  %4 = tail call noalias dereferenceable_or_null(200) ptr @calloc(i64 noundef 1, i64 noundef 200) #24
  %5 = icmp eq ptr %4, null
  br i1 %5, label %isoent_new.exit, label %6

6:                                                ; preds = %3
  %7 = tail call ptr @archive_entry_new2(ptr noundef %0) #23
  %8 = getelementptr inbounds nuw i8, ptr %4, i64 32
  store ptr %7, ptr %8, align 8, !tbaa !78
  %9 = icmp eq ptr %7, null
  br i1 %9, label %10, label %11

10:                                               ; preds = %6
  tail call void @free(ptr noundef nonnull %4) #23
  br label %isoent_new.exit

11:                                               ; preds = %6
  %12 = getelementptr inbounds nuw i8, ptr %4, i64 144
  %13 = getelementptr inbounds nuw i8, ptr %4, i64 176
  store ptr %12, ptr %13, align 8, !tbaa !84
  tail call void @archive_entry_set_pathname(ptr noundef nonnull %7, ptr noundef %2) #23
  %14 = load ptr, ptr %8, align 8, !tbaa !78
  tail call void @archive_entry_unset_mtime(ptr noundef %14) #23
  %15 = load ptr, ptr %8, align 8, !tbaa !78
  tail call void @archive_entry_unset_atime(ptr noundef %15) #23
  %16 = load ptr, ptr %8, align 8, !tbaa !78
  tail call void @archive_entry_unset_ctime(ptr noundef %16) #23
  %17 = load ptr, ptr %8, align 8, !tbaa !78
  %18 = tail call i32 @getuid() #23
  %19 = zext i32 %18 to i64
  tail call void @archive_entry_set_uid(ptr noundef %17, i64 noundef %19) #23
  %20 = load ptr, ptr %8, align 8, !tbaa !78
  %21 = tail call i32 @getgid() #23
  %22 = zext i32 %21 to i64
  tail call void @archive_entry_set_gid(ptr noundef %20, i64 noundef %22) #23
  %23 = load ptr, ptr %8, align 8, !tbaa !78
  tail call void @archive_entry_set_mode(ptr noundef %23, i32 noundef 16749) #23
  %24 = load ptr, ptr %8, align 8, !tbaa !78
  tail call void @archive_entry_set_nlink(ptr noundef %24, i32 noundef 2) #23
  %25 = tail call fastcc i32 @isofile_gen_utility_names(ptr noundef %0, ptr noundef %4)
  %26 = icmp slt i32 %25, -20
  br i1 %26, label %27, label %37

27:                                               ; preds = %11
  %28 = getelementptr inbounds nuw i8, ptr %4, i64 168
  %29 = load ptr, ptr %28, align 8, !tbaa !85
  %.not11.i = icmp eq ptr %29, null
  br i1 %.not11.i, label %isofile_free.exit, label %.lr.ph.i

.lr.ph.i:                                         ; preds = %27, %.lr.ph.i
  %.012.i = phi ptr [ %31, %.lr.ph.i ], [ %29, %27 ]
  %30 = getelementptr inbounds nuw i8, ptr %.012.i, i64 24
  %31 = load ptr, ptr %30, align 8, !tbaa !86
  tail call void @free(ptr noundef nonnull %.012.i) #23
  %.not.i = icmp eq ptr %31, null
  br i1 %.not.i, label %isofile_free.exit, label %.lr.ph.i, !llvm.loop !87

isofile_free.exit:                                ; preds = %.lr.ph.i, %27
  %32 = load ptr, ptr %8, align 8, !tbaa !78
  tail call void @archive_entry_free(ptr noundef %32) #23
  %33 = getelementptr inbounds nuw i8, ptr %4, i64 40
  tail call void @archive_string_free(ptr noundef nonnull %33) #23
  %34 = getelementptr inbounds nuw i8, ptr %4, i64 64
  tail call void @archive_string_free(ptr noundef nonnull %34) #23
  %35 = getelementptr inbounds nuw i8, ptr %4, i64 88
  tail call void @archive_string_free(ptr noundef nonnull %35) #23
  %36 = getelementptr inbounds nuw i8, ptr %4, i64 112
  tail call void @archive_string_free(ptr noundef nonnull %36) #23
  tail call void @free(ptr noundef nonnull %4) #23
  br label %isoent_new.exit

37:                                               ; preds = %11
  store ptr null, ptr %4, align 8, !tbaa !89
  %38 = getelementptr inbounds nuw i8, ptr %1, i64 144
  %39 = load ptr, ptr %38, align 8, !tbaa !45
  store ptr %4, ptr %39, align 8, !tbaa !90
  store ptr %4, ptr %38, align 8, !tbaa !45
  %40 = tail call noalias dereferenceable_or_null(240) ptr @calloc(i64 noundef 1, i64 noundef 240) #24
  %41 = icmp eq ptr %40, null
  br i1 %41, label %isoent_new.exit, label %._crit_edge

._crit_edge:                                      ; preds = %37
  %42 = getelementptr inbounds nuw i8, ptr %40, i64 24
  store ptr %4, ptr %42, align 8, !tbaa !91
  %43 = getelementptr inbounds nuw i8, ptr %40, i64 40
  %44 = getelementptr inbounds nuw i8, ptr %40, i64 48
  store ptr %43, ptr %44, align 8, !tbaa !92
  %45 = getelementptr inbounds nuw i8, ptr %40, i64 64
  tail call void @__archive_rb_tree_init(ptr noundef nonnull %45, ptr noundef nonnull @isoent_new.rb_ops) #23
  %46 = getelementptr inbounds nuw i8, ptr %40, i64 80
  store ptr null, ptr %46, align 8, !tbaa !93
  %47 = getelementptr inbounds nuw i8, ptr %40, i64 88
  store ptr %46, ptr %47, align 8, !tbaa !94
  %48 = getelementptr inbounds nuw i8, ptr %40, i64 208
  store ptr null, ptr %48, align 8, !tbaa !95
  %49 = getelementptr inbounds nuw i8, ptr %40, i64 216
  store ptr %48, ptr %49, align 8, !tbaa !96
  %50 = getelementptr inbounds nuw i8, ptr %40, i64 224
  store ptr null, ptr %50, align 8, !tbaa !97
  %51 = load ptr, ptr %8, align 8, !tbaa !78
  %52 = tail call i32 @archive_entry_filetype(ptr noundef %51) #23
  %53 = getelementptr inbounds nuw i8, ptr %40, i64 232
  %54 = load i8, ptr %53, align 8
  %55 = getelementptr inbounds nuw i8, ptr %40, i64 232
  %56 = or i8 %54, 3
  store i8 %56, ptr %55, align 8
  br label %isoent_new.exit

isoent_new.exit:                                  ; preds = %3, %10, %37, %._crit_edge, %isofile_free.exit
  %.0 = phi ptr [ null, %isofile_free.exit ], [ %40, %._crit_edge ], [ null, %37 ], [ null, %10 ], [ null, %3 ]
  ret ptr %.0
}